     1                                 %line 1+1 ast05.asm
     2                                 
     3                                 
     4                                 
     5                                 
     6                                 
     7                                 
     8                                 
     9                                 
    10                                 
    11                                 
    12                                 
    13                                 [section .data]
    14                                 
    15                                 
    16                                 
    17                                 
    18                                 NULL equ 0
    19                                 
    20                                 TRUE equ 1
    21                                 FALSE equ 0
    22                                 
    23                                 EXIT_SUCCESS equ 0
    24                                 SYS_exit equ 60
    25                                 
    26                                 
    27                                 
    28                                 
    29 00000000 4B0500000D04000063-    lengths dd 1355, 1037, 1123, 1024, 1453
    30 00000000 04000000040000AD05-
    31 00000000 0000               
    32 00000014 5B0400006F04000063-     dd 1115, 1135, 1123, 1123, 1123
    33 00000014 040000630400006304-
    34 00000014 0000               
    35 00000028 E6040000AE05000080-     dd 1254, 1454, 1152, 1164, 1542
    36 00000028 0400008C0400000606-
    37 00000028 0000               
    38 0000003C B7FAFFFFB10500009E-     dd -1353, 1457, 1182, -1142, 1354
    39 0000003C 0400008AFBFFFF4A05-
    40 0000003C 0000               
    41 00000050 540500006E04000082-     dd 1364, 1134, 1154, 1344, 1142
    42 00000050 040000400500007604-
    43 00000050 0000               
    44 00000064 95040000F9F9FFFF81-     dd 1173, -1543, -1151, 1352, -1434
    45 00000064 FBFFFF4805000066FA-
    46 00000064 FFFF               
    47 00000078 6E0400005608000084-     dd 1134, 2134, 1156, 1134, 1142
    48 00000078 0400006E0400007604-
    49 00000078 0000               
    50 0000008C F3040000500400006E-     dd 1267, 1104, 1134, 1246, 1123
    51 0000008C 040000DE0400006304-
    52 0000008C 0000               
    53 000000A0 6E04000077FBFFFF98-     dd 1134, -1161, 1176, 1157, -1142
    54 000000A0 040000850400008AFB-
    55 000000A0 FFFF               
    56 000000B4 7FFBFFFFA9040000A0-     dd -1153, 1193, 1184, 1142
    57 000000B4 04000076040000     
    58                                 
    59 000000C4 6F013C011E02F000A5-    widths dw 367, 316, 542, 240, 677
    60 000000C4 02                 
    61 000000CE 7B02AA0134039200B3-     dw 635, 426, 820, 146, -333
    62 000000CE FE                 
    63 000000D8 3D018DFFE2008C0035-     dw 317, -115, 226, 140, 565
    64 000000D8 02                 
    65 000000E2 67036602DA003901A6-     dw 871, 614, 218, 313, 422
    66 000000E2 01                 
    67 000000EC 89FFD700F3FD38FDB9-     dw -119, 215, -525, -712, 441
    68 000000EC 01                 
    69 000000F6 92FD25FD27FD6702D4-     dw -622, -731, -729, 615, 724
    70 000000F6 02                 
    71 00000100 D90020FF4402930044-     dw 217, -224, 580, 147, 324
    72 00000100 01                 
    73 0000010A A9013003060132FDC0-     dw 425, 816, 262, -718, 192
    74 0000010A 00                 
    75 00000114 50FEEB00FC0299FD36-     dw -432, 235, 764, -615, 310
    76 00000114 01                 
    77 0000011E FD02BA0339FC0302        dw 765, 954, -967, 515
    78                                 
    79 00000126 2A15381B23             heights db 42, 21, 56, 27, 35
    80 0000012B E552413723              db -27, 82, 65, 55, 35
    81 00000130 E7EDDEF143              db -25, -19, -34, -15, 67
    82 00000135 0F3D233835              db 15, 61, 35, 56, 53
    83 0000013A E023400FF6              db -32, 35, 64, 15, -10
    84 0000013F 4136E50F38              db 65, 54, -27, 15, 56
    85 00000144 5CE7190C19              db 92, -25, 25, 12, 25
    86 00000149 EF62B34B22              db -17, 98, -77, 75, 34
    87 0000014E 1753B7320F              db 23, 83, -73, 50, 15
    88 00000153 2319120D                db 35, 25, 18, 13
    89                                 
    90 00000157 31000000               count dd 49
    91                                 
    92 0000015B 00000000               vMin dd 0
    93 0000015F 00000000               vEstMed dd 0
    94 00000163 00000000               vMax dd 0
    95 00000167 00000000               vSum dd 0
    96 0000016B 00000000               vAve dd 0
    97                                 
    98 0000016F 00000000               saMin dd 0
    99 00000173 00000000               saEstMed dd 0
   100 00000177 00000000               saMax dd 0
   101 0000017B 00000000               saSum dd 0
   102 0000017F 00000000               saAve dd 0
   103                                 
   104                                 
   105                                 
   106                                 
   107                                 
   108                                 
   109                                 
   110                                 [section .bss]
   111                                 
   112 00000000 <gap>                  volumes resd 49
   113 000000C4 <gap>                  surfaceAreas resd 49
   114                                 
   115                                 [section .bss]
   116                                 
   117                                 
   118                                 
   119                                 
   120                                 [section .text]
   121                                 [global _start]
   122                                 _start:
   123                                 
   124                                 
   125                                 
   126                                 
   127 00000000 8B0C25[00000000]       mov ecx, dword[count]
   128 00000007 49C7C100000000         mov r9, 0
   129 0000000E 49C7C200000000         mov r10, 0
   130                                 
   131                                 calcVol:
   132 00000015 48C7C000000000          mov rax, 0
   133 0000001C 490FBE81[00000000]      movsx rax, byte[heights + r9]
   134 00000024 4F0FBF9409[00000000]      movsx r10, word[widths + r9*2]
   135 0000002D 490FAFC2                imul rax, r10
   136 00000031 4E63148D[00000000]      movsxd r10, dword[lengths + r9*4]
   137 00000039 490FAFC2                imul rax, r10
   138                                 
   139 0000003D 4289048D[00000000]      mov dword[volumes + r9*4], eax
   140                                 
   141                                 
   142 00000045 49FFC1                  inc r9
   143 00000048 E2C9                    loop calcVol
   144                                 
   145                                 
   146                                 
   147 0000004A 48C7C100000000         mov rcx, 0
   148 00000051 8B0C25[00000000]       mov ecx, dword[count]
   149 00000058 49C7C100000000         mov r9, 0
   150                                 
   151                                 findMin:
   152 0000005F 418B81[00000000]        mov eax, dword[volumes + r9]
   153 00000066 4983C104                add r9, 4
   154 0000006A 390425[00000000]        cmp dword[vMin], eax
   155 00000071 7E05                    jle skipMin
   156 00000073 890425[00000000]        mov dword[vMin], eax
   157                                 skipMin:
   158 0000007A E2E1                    loop findMin
   159                                 
   160                                 
   161                                 
   162 0000007C 48C7C000000000         mov rax, 0
   163 00000083 48C7C200000000         mov rdx, 0
   164 0000008A 8B0425[00000000]       mov eax, dword[count]
   165 00000091 49C7C200000000         mov r10, 0
   166                                 
   167                                 
   168 00000098 44031425[00000000]     add r10d, dword[volumes]
   169                                 
   170                                 
   171 000000A0 48FFC8                 dec rax
   172 000000A3 44031485[00000000]     add r10d, dword[volumes + rax*4]
   173                                 
   174                                 
   175 000000AB 49C7C102000000         mov r9, 2
   176 000000B2 49F7F1                 div r9
   177 000000B5 44031485[00000000]     add r10d, dword[volumes + rax*4]
   178                                 
   179                                 
   180 000000BD 49C7C103000000         mov r9, 3
   181 000000C4 4C89D0                 mov rax, r10
   182 000000C7 49F7F1                 div r9
   183                                 
   184                                 
   185 000000CA 890425[00000000]       mov dword[vEstMed], eax
   186                                 
   187                                 
   188                                 
   189 000000D1 8B0C25[00000000]       mov ecx, dword[count]
   190 000000D8 49C7C100000000         mov r9, 0
   191                                 
   192                                 lpMax:
   193 000000DF 418B81[00000000]        mov eax, dword[volumes + r9]
   194 000000E6 4983C104                add r9, 4
   195 000000EA 390425[00000000]        cmp dword[vMax], eax
   196 000000F1 7D05                    jge skipMax
   197 000000F3 890425[00000000]        mov dword[vMax], eax
   198                                 skipMax:
   199 000000FA E2E1                    loop lpMax
   200                                 
   201                                 
   202                                 
   203 000000FC 8B0C25[00000000]       mov ecx, dword[count]
   204 00000103 48C7C000000000         mov rax, 0
   205 0000010A 49C7C100000000         mov r9, 0
   206                                 
   207                                 lpSum:
   208 00000111 418B81[00000000]        mov eax, dword[volumes + r9]
   209 00000118 4983C104                add r9, 4
   210 0000011C 010425[00000000]        add dword[vSum], eax
   211 00000123 E2EA                    loop lpSum
   212                                 
   213                                 
   214                                 
   215 00000125 48C7C000000000         mov rax, 0
   216 0000012C 48C7C200000000         mov rdx, 0
   217 00000133 8B0425[00000000]       mov eax, dword[vSum]
   218 0000013A F73425[00000000]       div dword[count]
   219 00000141 890425[00000000]       mov dword[vAve], eax
   220                                 
   221                                 
   222                                 
   223 00000148 8B0C25[00000000]       mov ecx, dword[count]
   224 0000014F 49C7C100000000         mov r9, 0
   225 00000156 49C7C200000000         mov r10, 0
   226 0000015D 49C7C302000000         mov r11, 2
   227 00000164 49C7C400000000         mov r12, 0
   228                                 
   229                                 calcSA:
   230 0000016B 48C7C000000000          mov rax, 0
   231 00000172 490FBE81[00000000]      movsx rax, byte[heights + r9]
   232 0000017A 4F0FBF9409[00000000]      movsx r10, word[widths + r9*2]
   233 00000183 490FAFC2                imul rax, r10
   234 00000187 490FAFC3                imul rax, r11
   235 0000018B 4901C4                  add r12, rax
   236                                 
   237 0000018E 490FBE81[00000000]      movsx rax, byte[heights + r9]
   238 00000196 4E63148D[00000000]      movsxd r10, dword[lengths + r9*4]
   239 0000019E 490FAFC2                imul rax, r10
   240 000001A2 490FAFC3                imul rax, r11
   241 000001A6 4901C4                  add r12, rax
   242                                 
   243 000001A9 4B0FBF8409[00000000]      movsx rax, word[widths + r9*2]
   244 000001B2 4E63148D[00000000]      movsxd r10, dword[lengths + r9*4]
   245 000001BA 490FAFC2                imul rax, r10
   246 000001BE 490FAFC3                imul rax, r11
   247 000001C2 4901C4                  add r12, rax
   248                                 
   249 000001C5 4689248D[00000000]      mov dword[surfaceAreas + r9*4], r12d
   250                                 
   251                                 
   252 000001CD 49C7C400000000          mov r12, 0
   253 000001D4 49FFC1                  inc r9
   254 000001D7 E290                    loop calcSA
   255                                 
   256                                 
   257                                 
   258                                 
   259 000001D9 48C7C100000000         mov rcx, 0
   260 000001E0 8B0C25[00000000]       mov ecx, dword[count]
   261 000001E7 49C7C100000000         mov r9, 0
   262                                 
   263                                 findSAMin:
   264 000001EE 418B81[00000000]        mov eax, dword[surfaceAreas + r9]
   265 000001F5 4983C104                add r9, 4
   266 000001F9 390425[00000000]        cmp dword[saMin], eax
   267 00000200 7E05                    jle skipSAMin
   268 00000202 890425[00000000]        mov dword[saMin], eax
   269                                 skipSAMin:
   270 00000209 E2E1                    loop findSAMin
   271                                 
   272                                 
   273                                 
   274 0000020B 48C7C000000000         mov rax, 0
   275 00000212 48C7C200000000         mov rdx, 0
   276 00000219 8B0425[00000000]       mov eax, dword[count]
   277 00000220 49C7C200000000         mov r10, 0
   278                                 
   279                                 
   280 00000227 44031425[00000000]     add r10d, dword[surfaceAreas]
   281                                 
   282                                 
   283 0000022F 48FFC8                 dec rax
   284 00000232 44031485[00000000]     add r10d, dword[surfaceAreas + rax*4]
   285                                 
   286                                 
   287 0000023A 49C7C102000000         mov r9, 2
   288 00000241 49F7F1                 div r9
   289 00000244 44031485[00000000]     add r10d, dword[surfaceAreas + rax*4]
   290                                 
   291                                 
   292 0000024C 49C7C103000000         mov r9, 3
   293 00000253 4C89D0                 mov rax, r10
   294 00000256 49F7F1                 div r9
   295                                 
   296                                 
   297 00000259 890425[00000000]       mov dword[saEstMed], eax
   298                                 
   299                                 
   300                                 
   301 00000260 8B0C25[00000000]       mov ecx, dword[count]
   302 00000267 49C7C100000000         mov r9, 0
   303                                 
   304                                 lpSAMax:
   305 0000026E 418B81[00000000]        mov eax, dword[surfaceAreas + r9]
   306 00000275 4983C104                add r9, 4
   307 00000279 390425[00000000]        cmp dword[saMax], eax
   308 00000280 7D05                    jge skipSAMax
   309 00000282 890425[00000000]        mov dword[saMax], eax
   310                                 skipSAMax:
   311 00000289 E2E1                    loop lpSAMax
   312                                 
   313                                 
   314                                 
   315 0000028B 8B0C25[00000000]       mov ecx, dword[count]
   316 00000292 48C7C000000000         mov rax, 0
   317 00000299 49C7C100000000         mov r9, 0
   318                                 
   319                                 lpSASum:
   320 000002A0 418B81[00000000]        mov eax, dword[surfaceAreas + r9]
   321 000002A7 4983C104                add r9, 4
   322 000002AB 010425[00000000]        add dword[saSum], eax
   323 000002B2 E2EA                    loop lpSASum
   324                                 
   325                                 
   326                                 
   327 000002B4 48C7C000000000          mov rax, 0
   328 000002BB 48C7C200000000          mov rdx, 0
   329 000002C2 8B0425[00000000]        mov eax, dword[saSum]
   330 000002C9 F73425[00000000]        div dword[count]
   331 000002D0 890425[00000000]        mov dword[saAve], eax
   332                                 
   333                                 
   334                                 
   335                                 
   336                                 last:
   337 000002D7 48C7C03C000000          mov rax, SYS_exit
   338 000002DE 48C7C700000000          mov rdi, EXIT_SUCCESS
   339 000002E5 0F05                    syscall
