     1                                 %line 1+1 ast07.asm
     2                                 
     3                                 
     4                                 
     5                                 
     6                                 
     7                                 
     8                                 
     9                                 
    10                                 
    11                                 
    12                                 
    13                                 
    14                                 
    15                                 
    16                                 
    17                                 
    18                                 
    19                                 
    20                                 
    21                                 
    22                                 
    23                                 
    24                                 
    25                                 
    26                                 
    27                                 
    28                                 
    29                                 
    30                                 
    31                                 
    32                                 
    33                                 
    34                                 
    35                                 
    36                                 
    37                                 
    38                                 
    39                                 
    40                                 
    41                                 
    42                                 
    43                                 
    44                                 
    45                                 
    46                                 
    47                                 
    48                                 
    49                                 
    50                                 
    51                                 
    52                                 %line 59+1 ast07.asm
    53                                 
    54                                 
    55                                 
    56                                 
    57                                 
    58                                 
    59                                 
    60                                 
    61                                 
    62                                 
    63                                 
    64                                 
    65                                 
    66                                 %line 100+1 ast07.asm
    67                                 
    68                                 
    69                                 
    70                                 
    71                                 [section .data]
    72                                 
    73                                 
    74                                 
    75                                 
    76                                 TRUE equ 1
    77                                 FALSE equ 0
    78                                 
    79                                 EXIT_SUCCESS equ 0
    80                                 
    81                                 STDIN equ 0
    82                                 STDOUT equ 1
    83                                 STDERR equ 2
    84                                 
    85                                 SYS_read equ 0
    86                                 SYS_write equ 1
    87                                 SYS_open equ 2
    88                                 SYS_close equ 3
    89                                 SYS_fork equ 57
    90                                 SYS_exit equ 60
    91                                 SYS_creat equ 85
    92                                 SYS_time equ 201
    93                                 
    94                                 LF equ 10
    95                                 NULL equ 0
    96                                 ESC equ 27
    97                                 
    98                                 
    99                                 
   100                                 
   101 00000000 59040000D004000062-    lst dd 1113, 1232, 2146, 1376, 5120, 2356, 164, 4565, 155, 3157
   102 00000000 080000600500000014-
   103 00000000 000034090000A40000-
   104 00000000 00D51100009B000000-
   105 00000000 550C0000           
   106 00000028 F702000046010000AB-     dd 759, 326, 171, 147, 5628, 7527, 7569, 177, 6785, 3514
   107 00000028 00000093000000FC15-
   108 00000028 0000671D0000911D00-
   109 00000028 00B1000000811A0000-
   110 00000028 BA0D0000           
   111 00000050 E9030000800000006D-     dd 1001, 128, 1133, 1105, 327, 101, 115, 1108, 1, 115
   112 00000050 040000510400004701-
   113 00000050 000065000000730000-
   114 00000050 005404000001000000-
   115 00000050 73000000           
   116 00000078 CB040000CA04000009-     dd 1227, 1226, 5129, 117, 107, 105, 109, 999, 150, 414
   117 00000078 140000750000006B00-
   118 00000078 0000690000006D0000-
   119 00000078 00E703000096000000-
   120 00000078 9E010000           
   121 000000A0 6B000000D7170000F5-     dd 107, 6103, 245, 6440, 1465, 2311, 254, 4528, 1913, 6722
   122 000000A0 00000028190000B905-
   123 000000A0 000007090000FE0000-
   124 000000A0 00B011000079070000-
   125 000000A0 421A0000           
   126 000000C8 7D0400007E00000027-     dd 1149, 126, 5671, 4647, 628, 327, 2390, 177, 8275, 614
   127 000000C8 160000271200007402-
   128 000000C8 000047010000560900-
   129 000000C8 00B100000053200000-
   130 000000C8 66020000           
   131 000000F0 310C00009F01000067-     dd 3121, 415, 615, 122, 7217, 1, 410, 1129, 812, 2134
   132 000000F0 0200007A000000311C-
   133 000000F0 0000010000009A0100-
   134 000000F0 00690400002C030000-
   135 000000F0 56080000           
   136 00000118 DD000000BA08000097-     dd 221, 2234, 151, 432, 114, 1629, 114, 522, 2413, 131
   137 00000118 000000B00100007200-
   138 00000118 00005D060000720000-
   139 00000118 000A0200006D090000-
   140 00000118 83000000           
   141 00000140 071600007E0000008A-     dd 5639, 126, 1162, 441, 127, 877, 199, 679, 1101, 3414
   142 00000140 040000B90100007F00-
   143 00000140 00006D030000C70000-
   144 00000140 00A70200004D040000-
   145 00000140 560D0000           
   146 00000168 35080000850000006D-     dd 2101, 133, 1133, 2450, 532, 8619, 115, 1618, 9999, 115
   147 00000168 040000920900001402-
   148 00000168 0000AB210000730000-
   149 00000168 00520600000F270000-
   150 00000168 73000000           
   151 00000190 DB0000002C0C000064-     dd 219, 3116, 612, 217, 127, 6787, 4569, 679, 675, 4314
   152 00000190 020000D90000007F00-
   153 00000190 0000831A0000D91100-
   154 00000190 00A7020000A3020000-
   155 00000190 DA100000           
   156 000001B8 5004000039030000A0-     dd 1104, 825, 1184, 2143, 1176, 134, 4626, 100, 4566, 346
   157 000001B8 0400005F0800009804-
   158 000001B8 000086000000121200-
   159 000001B8 0064000000D6110000-
   160 000001B8 5A010000           
   161 000001E0 BE040000821A000069-     dd 1214, 6786, 617, 183, 512, 7881, 8320, 3467, 559, 1190
   162 000001E0 020000B70000000002-
   163 000001E0 0000C91E0000802000-
   164 000001E0 008B0D00002F020000-
   165 000001E0 A6040000           
   166 00000208 670000007000000001-     dd 103, 112, 1, 2186, 191, 86, 134, 1125, 5675, 476
   167 00000208 0000008A080000BF00-
   168 00000208 000056000000860000-
   169 00000208 00650400002B160000-
   170 00000208 DC010000           
   171 00000230 97150000400500006A-     dd 5527, 1344, 1130, 2172, 224, 7525, 100, 1, 100, 1134
   172 00000230 0400007C080000E000-
   173 00000230 0000651D0000640000-
   174 00000230 000100000064000000-
   175 00000230 6E040000           
   176 00000258 B50000009B00000079-     dd 181, 155, 1145, 132, 167, 185, 150, 149, 182, 434
   177 00000258 04000084000000A700-
   178 00000258 0000B9000000960000-
   179 00000258 0095000000B6000000-
   180 00000258 B2010000           
   181 00000280 4502000071020000AB-     dd 581, 625, 6315, 1, 617, 855, 6737, 129, 4512, 1
   182 00000280 180000010000006902-
   183 00000280 000057030000511A00-
   184 00000280 0081000000A0110000-
   185 00000280 01000000           
   186 000002A8 B1000000A4000000A0-     dd 177, 164, 160, 1172, 184, 175, 166, 6762, 158, 4572
   187 000002A8 00000094040000B800-
   188 000002A8 0000AF000000A60000-
   189 000002A8 006A1A00009E000000-
   190 000002A8 DC110000           
   191 000002D0 A11900001B0100006D-     dd 6561, 283, 1133, 1150, 135, 5631, 8185, 178, 1197, 185
   192 000002D0 0400007E0400008700-
   193 000002D0 0000FF150000F91F00-
   194 000002D0 00B2000000AD040000-
   195 000002D0 B9000000           
   196 000002F8 89020000DE1800008A-     dd 649, 6366, 1162, 167, 167, 177, 169, 1177, 175, 1169
   197 000002F8 040000A7000000A700-
   198 000002F8 0000B1000000A90000-
   199 000002F8 0099040000AF000000-
   200 000002F8 91040000           
   201                                 
   202                                 
   203 00000320 0A000000               len dd 10
   204                                 
   205 00000324 00000000               min dd 0
   206 00000328 00000000               med dd 0
   207 0000032C 00000000               max dd 0
   208 00000330 00000000               sum dd 0
   209 00000334 00000000               avg dd 0
   210                                 
   211                                 
   212                                 
   213                                 
   214                                 
   215 00000338 00000000               h dd 0
   216 0000033C 00000000               i dd 0
   217 00000340 00000000               j dd 0
   218 00000344 00000000               tmp dd 0
   219                                 
   220                                 
   221                                 
   222                                 
   223                                 
   224                                 STR_LENGTH equ 12
   225                                 
   226 00000348 0A00                   newLine db LF, NULL
   227                                 
   228 0000034A 2D2D2D2D2D2D2D2D2D-    hdr db "---------------------------"
   229 0000034A 2D2D2D2D2D2D2D2D2D-
   230 0000034A 2D2D2D2D2D2D2D2D2D 
   231 00000365 2D2D2D2D2D2D2D2D2D-     db "---------------------------"
   232 00000365 2D2D2D2D2D2D2D2D2D-
   233 00000365 2D2D2D2D2D2D2D2D2D 
   234 00000380 0A1B5B316D43532032-     db LF, ESC, "[1m", "CS 218 - Assignment #7", ESC, "[0m"
   235 00000380 3138202D2041737369-
   236 00000380 676E6D656E74202337-
   237 00000380 1B5B306D           
   238 0000039F 0A5368656C6C20536F-     db LF, "Shell Sort", LF, LF, NULL
   239 0000039F 72740A0A00         
   240                                 
   241 000003AD 4D696E696D756D3A20-    hdrMin db "Minimum:  ", NULL
   242 000003AD 2000               
   243 000003B8 4D656469616E3A2020-    hdrMed db "Median:   ", NULL
   244 000003B8 2000               
   245 000003C3 4D6178696D756D3A20-    hdrMax db "Maximum:  ", NULL
   246 000003C3 2000               
   247 000003CE 53756D3A2020202020-    hdrSum db "Sum:      ", NULL
   248 000003CE 2000               
   249 000003D9 417665726167653A20-    hdrAve db "Average:  ", NULL
   250 000003D9 2000               
   251                                 
   252                                 
   253                                 
   254                                 [section .bss]
   255                                 
   256 00000000 <gap>                  tmpString resb STR_LENGTH
   257                                 
   258                                 
   259                                 
   260                                 [section .text]
   261                                 [global _start]
   262                                 _start:
   263                                 
   264                                 
   265                                 
   266                                 
   267                                 
   268 00000000 C70425[00000000]01-    mov dword[h], 1
   269 00000000 000000             
   270                                 
   271                                 
   272                                 
   273                                 whileLp1:
   274 0000000B 8B0425[00000000]        mov eax, dword[h]
   275 00000012 49C7C003000000          mov r8, 3
   276 00000019 41F7E8                  imul r8d
   277 0000001C 48FFC0                  inc rax
   278 0000001F 3B0425[00000000]        cmp eax, dword[len]
   279 00000026 7F07                    jg whileLp2
   280 00000028 890425[00000000]        mov dword[h], eax
   281 0000002F EBD8                    jmp whileLp1
   282                                 
   283                                 whileLp2:
   284                                 
   285                                 
   286                                 
   287                                 
   288 00000031 448B1425[00000000]      mov r10d, dword[h]
   289 00000039 49FFCA                  dec r10
   290 0000003C 44891425[00000000]      mov dword[i], r10d
   291                                  forLp1:
   292 00000044 49C7C000000000          mov r8, 0
   293 0000004B 448B0425[00000000]      mov r8d, dword[i]
   294 00000053 443B0425[00000000]      cmp r8d, dword[len]
   295 0000005B 0F8F83000000            jg divH
   296                                 
   297                                 
   298 00000061 468B1C85[00000000]      mov r11d, dword[lst + r8 * 4]
   299 00000069 44891C25[00000000]      mov dword[tmp], r11d
   300                                 
   301 00000071 44890425[00000000]      mov dword[j], r8d
   302                                 
   303                                 
   304                                  forLp2:
   305 00000079 49C7C000000000          mov r8, 0
   306 00000080 448B0425[00000000]      mov r8d, dword[j]
   307 00000088 443B0425[00000000]      cmp r8d, dword[h]
   308 00000090 7C32                    jl breakForLp2
   309                                 
   310 00000092 442B0425[00000000]      sub r8d, dword[h]
   311 0000009A 468B2485[00000000]      mov r12d, dword[lst + r8 * 4]
   312 000000A2 443B2425[00000000]      cmp r12d, dword[tmp]
   313 000000AA 7E18                    jle breakForLp2
   314                                 
   315                                 
   316 000000AC 448B2C25[00000000]      mov r13d, dword[j]
   317 000000B4 468924AD[00000000]      mov dword[lst + r13 * 4], r12d
   318                                 
   319                                 
   320 000000BC 44890425[00000000]      mov dword[j], r8d
   321 000000C4 EBB1                    jmp forLp2
   322                                 
   323                                 
   324                                  breakForLp2:
   325                                 
   326                                 
   327 000000C6 448B1C25[00000000]      mov r11d, dword[tmp]
   328 000000CE 448B0425[00000000]      mov r8d, dword[j]
   329 000000D6 46891C85[00000000]      mov dword[lst + r8*4], r11d
   330                                 
   331 000000DE FF0425[00000000]        inc dword[i]
   332 000000E5 E955FFFFFF              jmp forLp1
   333                                 
   334                                 
   335                                 divH:
   336                                 
   337 000000EA 48C7C000000000         mov rax, 0
   338 000000F1 48C7C200000000         mov rdx, 0
   339 000000F8 8B0425[00000000]       mov eax, dword[h]
   340 000000FF 49C7C103000000         mov r9, 3
   341 00000106 41F7F9                 idiv r9d
   342 00000109 890425[00000000]       mov dword[h], eax
   343                                 
   344                                 
   345 00000110 83F800                 cmp eax, 0
   346 00000113 0F8F12FFFFFF           jg whileLp2
   347                                 
   348                                 
   349                                 
   350                                 
   351                                 
   352                                 
   353                                 
   354                                 
   355                                 
   356                                 
   357                                 
   358                                 
   359                                 
   360                                 
   361                                 
   362 00000119 50                      push rax
   363                                 %line 301+0 ast07.asm
   364 0000011A 57                      push rdi
   365 0000011B 56                      push rsi
   366 0000011C 52                      push rdx
   367 0000011D 51                      push rcx
   368                                 
   369 0000011E 488D3C25[00000000]      lea rdi, [hdr]
   370 00000126 48C7C200000000          mov rdx, 0
   371                                 ..@4.countLoop:
   372 0000012D 803F00                  cmp byte [rdi], NULL
   373 00000130 7406                    je ..@4.countLoopDone
   374 00000132 48FFC7                  inc rdi
   375 00000135 48FFC2                  inc rdx
   376 00000138 EBF1                    jmp ..@4.countLoop
   377                                 ..@4.countLoopDone:
   378                                 
   379 0000013A 48C7C001000000          mov rax, SYS_write
   380 00000141 48C7C701000000          mov rdi, STDOUT
   381 00000148 488D3425[00000000]      lea rsi, [hdr]
   382 00000150 0F05                    syscall
   383                                 
   384 00000152 59                      pop rcx
   385 00000153 5A                      pop rdx
   386 00000154 5E                      pop rsi
   387 00000155 5F                      pop rdi
   388 00000156 58                      pop rax
   389                                 %line 302+1 ast07.asm
   390                                 
   391 00000157 50                      push rax
   392                                 %line 303+0 ast07.asm
   393 00000158 57                      push rdi
   394 00000159 56                      push rsi
   395 0000015A 52                      push rdx
   396 0000015B 51                      push rcx
   397                                 
   398 0000015C 488D3C25[00000000]      lea rdi, [hdrMin]
   399 00000164 48C7C200000000          mov rdx, 0
   400                                 ..@5.countLoop:
   401 0000016B 803F00                  cmp byte [rdi], NULL
   402 0000016E 7406                    je ..@5.countLoopDone
   403 00000170 48FFC7                  inc rdi
   404 00000173 48FFC2                  inc rdx
   405 00000176 EBF1                    jmp ..@5.countLoop
   406                                 ..@5.countLoopDone:
   407                                 
   408 00000178 48C7C001000000          mov rax, SYS_write
   409 0000017F 48C7C701000000          mov rdi, STDOUT
   410 00000186 488D3425[00000000]      lea rsi, [hdrMin]
   411 0000018E 0F05                    syscall
   412                                 
   413 00000190 59                      pop rcx
   414 00000191 5A                      pop rdx
   415 00000192 5E                      pop rsi
   416 00000193 5F                      pop rdi
   417 00000194 58                      pop rax
   418                                 %line 304+1 ast07.asm
   419                                 
   420                                 %line 304+0 ast07.asm
   421                                 
   422                                 
   423                                 
   424                                 
   425                                 
   426                                 %line 305+1 ast07.asm
   427 00000195 50                      push rax
   428                                 %line 305+0 ast07.asm
   429 00000196 57                      push rdi
   430 00000197 56                      push rsi
   431 00000198 52                      push rdx
   432 00000199 51                      push rcx
   433                                 
   434 0000019A 488D3C25[00000000]      lea rdi, [tmpString]
   435 000001A2 48C7C200000000          mov rdx, 0
   436                                 ..@7.countLoop:
   437 000001A9 803F00                  cmp byte [rdi], NULL
   438 000001AC 7406                    je ..@7.countLoopDone
   439 000001AE 48FFC7                  inc rdi
   440 000001B1 48FFC2                  inc rdx
   441 000001B4 EBF1                    jmp ..@7.countLoop
   442                                 ..@7.countLoopDone:
   443                                 
   444 000001B6 48C7C001000000          mov rax, SYS_write
   445 000001BD 48C7C701000000          mov rdi, STDOUT
   446 000001C4 488D3425[00000000]      lea rsi, [tmpString]
   447 000001CC 0F05                    syscall
   448                                 
   449 000001CE 59                      pop rcx
   450 000001CF 5A                      pop rdx
   451 000001D0 5E                      pop rsi
   452 000001D1 5F                      pop rdi
   453 000001D2 58                      pop rax
   454                                 %line 306+1 ast07.asm
   455 000001D3 50                      push rax
   456                                 %line 306+0 ast07.asm
   457 000001D4 57                      push rdi
   458 000001D5 56                      push rsi
   459 000001D6 52                      push rdx
   460 000001D7 51                      push rcx
   461                                 
   462 000001D8 488D3C25[00000000]      lea rdi, [newLine]
   463 000001E0 48C7C200000000          mov rdx, 0
   464                                 ..@8.countLoop:
   465 000001E7 803F00                  cmp byte [rdi], NULL
   466 000001EA 7406                    je ..@8.countLoopDone
   467 000001EC 48FFC7                  inc rdi
   468 000001EF 48FFC2                  inc rdx
   469 000001F2 EBF1                    jmp ..@8.countLoop
   470                                 ..@8.countLoopDone:
   471                                 
   472 000001F4 48C7C001000000          mov rax, SYS_write
   473 000001FB 48C7C701000000          mov rdi, STDOUT
   474 00000202 488D3425[00000000]      lea rsi, [newLine]
   475 0000020A 0F05                    syscall
   476                                 
   477 0000020C 59                      pop rcx
   478 0000020D 5A                      pop rdx
   479 0000020E 5E                      pop rsi
   480 0000020F 5F                      pop rdi
   481 00000210 58                      pop rax
   482                                 %line 307+1 ast07.asm
   483                                 
   484 00000211 50                      push rax
   485                                 %line 308+0 ast07.asm
   486 00000212 57                      push rdi
   487 00000213 56                      push rsi
   488 00000214 52                      push rdx
   489 00000215 51                      push rcx
   490                                 
   491 00000216 488D3C25[00000000]      lea rdi, [hdrMed]
   492 0000021E 48C7C200000000          mov rdx, 0
   493                                 ..@9.countLoop:
   494 00000225 803F00                  cmp byte [rdi], NULL
   495 00000228 7406                    je ..@9.countLoopDone
   496 0000022A 48FFC7                  inc rdi
   497 0000022D 48FFC2                  inc rdx
   498 00000230 EBF1                    jmp ..@9.countLoop
   499                                 ..@9.countLoopDone:
   500                                 
   501 00000232 48C7C001000000          mov rax, SYS_write
   502 00000239 48C7C701000000          mov rdi, STDOUT
   503 00000240 488D3425[00000000]      lea rsi, [hdrMed]
   504 00000248 0F05                    syscall
   505                                 
   506 0000024A 59                      pop rcx
   507 0000024B 5A                      pop rdx
   508 0000024C 5E                      pop rsi
   509 0000024D 5F                      pop rdi
   510 0000024E 58                      pop rax
   511                                 %line 309+1 ast07.asm
   512                                 
   513                                 %line 309+0 ast07.asm
   514                                 
   515                                 
   516                                 
   517                                 
   518                                 
   519                                 %line 310+1 ast07.asm
   520 0000024F 50                      push rax
   521                                 %line 310+0 ast07.asm
   522 00000250 57                      push rdi
   523 00000251 56                      push rsi
   524 00000252 52                      push rdx
   525 00000253 51                      push rcx
   526                                 
   527 00000254 488D3C25[00000000]      lea rdi, [tmpString]
   528 0000025C 48C7C200000000          mov rdx, 0
   529                                 ..@11.countLoop:
   530 00000263 803F00                  cmp byte [rdi], NULL
   531 00000266 7406                    je ..@11.countLoopDone
   532 00000268 48FFC7                  inc rdi
   533 0000026B 48FFC2                  inc rdx
   534 0000026E EBF1                    jmp ..@11.countLoop
   535                                 ..@11.countLoopDone:
   536                                 
   537 00000270 48C7C001000000          mov rax, SYS_write
   538 00000277 48C7C701000000          mov rdi, STDOUT
   539 0000027E 488D3425[00000000]      lea rsi, [tmpString]
   540 00000286 0F05                    syscall
   541                                 
   542 00000288 59                      pop rcx
   543 00000289 5A                      pop rdx
   544 0000028A 5E                      pop rsi
   545 0000028B 5F                      pop rdi
   546 0000028C 58                      pop rax
   547                                 %line 311+1 ast07.asm
   548 0000028D 50                      push rax
   549                                 %line 311+0 ast07.asm
   550 0000028E 57                      push rdi
   551 0000028F 56                      push rsi
   552 00000290 52                      push rdx
   553 00000291 51                      push rcx
   554                                 
   555 00000292 488D3C25[00000000]      lea rdi, [newLine]
   556 0000029A 48C7C200000000          mov rdx, 0
   557                                 ..@12.countLoop:
   558 000002A1 803F00                  cmp byte [rdi], NULL
   559 000002A4 7406                    je ..@12.countLoopDone
   560 000002A6 48FFC7                  inc rdi
   561 000002A9 48FFC2                  inc rdx
   562 000002AC EBF1                    jmp ..@12.countLoop
   563                                 ..@12.countLoopDone:
   564                                 
   565 000002AE 48C7C001000000          mov rax, SYS_write
   566 000002B5 48C7C701000000          mov rdi, STDOUT
   567 000002BC 488D3425[00000000]      lea rsi, [newLine]
   568 000002C4 0F05                    syscall
   569                                 
   570 000002C6 59                      pop rcx
   571 000002C7 5A                      pop rdx
   572 000002C8 5E                      pop rsi
   573 000002C9 5F                      pop rdi
   574 000002CA 58                      pop rax
   575                                 %line 312+1 ast07.asm
   576                                 
   577 000002CB 50                      push rax
   578                                 %line 313+0 ast07.asm
   579 000002CC 57                      push rdi
   580 000002CD 56                      push rsi
   581 000002CE 52                      push rdx
   582 000002CF 51                      push rcx
   583                                 
   584 000002D0 488D3C25[00000000]      lea rdi, [hdrMax]
   585 000002D8 48C7C200000000          mov rdx, 0
   586                                 ..@13.countLoop:
   587 000002DF 803F00                  cmp byte [rdi], NULL
   588 000002E2 7406                    je ..@13.countLoopDone
   589 000002E4 48FFC7                  inc rdi
   590 000002E7 48FFC2                  inc rdx
   591 000002EA EBF1                    jmp ..@13.countLoop
   592                                 ..@13.countLoopDone:
   593                                 
   594 000002EC 48C7C001000000          mov rax, SYS_write
   595 000002F3 48C7C701000000          mov rdi, STDOUT
   596 000002FA 488D3425[00000000]      lea rsi, [hdrMax]
   597 00000302 0F05                    syscall
   598                                 
   599 00000304 59                      pop rcx
   600 00000305 5A                      pop rdx
   601 00000306 5E                      pop rsi
   602 00000307 5F                      pop rdi
   603 00000308 58                      pop rax
   604                                 %line 314+1 ast07.asm
   605                                 
   606                                 %line 314+0 ast07.asm
   607                                 
   608                                 
   609                                 
   610                                 
   611                                 
   612                                 %line 315+1 ast07.asm
   613 00000309 50                      push rax
   614                                 %line 315+0 ast07.asm
   615 0000030A 57                      push rdi
   616 0000030B 56                      push rsi
   617 0000030C 52                      push rdx
   618 0000030D 51                      push rcx
   619                                 
   620 0000030E 488D3C25[00000000]      lea rdi, [tmpString]
   621 00000316 48C7C200000000          mov rdx, 0
   622                                 ..@15.countLoop:
   623 0000031D 803F00                  cmp byte [rdi], NULL
   624 00000320 7406                    je ..@15.countLoopDone
   625 00000322 48FFC7                  inc rdi
   626 00000325 48FFC2                  inc rdx
   627 00000328 EBF1                    jmp ..@15.countLoop
   628                                 ..@15.countLoopDone:
   629                                 
   630 0000032A 48C7C001000000          mov rax, SYS_write
   631 00000331 48C7C701000000          mov rdi, STDOUT
   632 00000338 488D3425[00000000]      lea rsi, [tmpString]
   633 00000340 0F05                    syscall
   634                                 
   635 00000342 59                      pop rcx
   636 00000343 5A                      pop rdx
   637 00000344 5E                      pop rsi
   638 00000345 5F                      pop rdi
   639 00000346 58                      pop rax
   640                                 %line 316+1 ast07.asm
   641 00000347 50                      push rax
   642                                 %line 316+0 ast07.asm
   643 00000348 57                      push rdi
   644 00000349 56                      push rsi
   645 0000034A 52                      push rdx
   646 0000034B 51                      push rcx
   647                                 
   648 0000034C 488D3C25[00000000]      lea rdi, [newLine]
   649 00000354 48C7C200000000          mov rdx, 0
   650                                 ..@16.countLoop:
   651 0000035B 803F00                  cmp byte [rdi], NULL
   652 0000035E 7406                    je ..@16.countLoopDone
   653 00000360 48FFC7                  inc rdi
   654 00000363 48FFC2                  inc rdx
   655 00000366 EBF1                    jmp ..@16.countLoop
   656                                 ..@16.countLoopDone:
   657                                 
   658 00000368 48C7C001000000          mov rax, SYS_write
   659 0000036F 48C7C701000000          mov rdi, STDOUT
   660 00000376 488D3425[00000000]      lea rsi, [newLine]
   661 0000037E 0F05                    syscall
   662                                 
   663 00000380 59                      pop rcx
   664 00000381 5A                      pop rdx
   665 00000382 5E                      pop rsi
   666 00000383 5F                      pop rdi
   667 00000384 58                      pop rax
   668                                 %line 317+1 ast07.asm
   669                                 
   670 00000385 50                      push rax
   671                                 %line 318+0 ast07.asm
   672 00000386 57                      push rdi
   673 00000387 56                      push rsi
   674 00000388 52                      push rdx
   675 00000389 51                      push rcx
   676                                 
   677 0000038A 488D3C25[00000000]      lea rdi, [hdrSum]
   678 00000392 48C7C200000000          mov rdx, 0
   679                                 ..@17.countLoop:
   680 00000399 803F00                  cmp byte [rdi], NULL
   681 0000039C 7406                    je ..@17.countLoopDone
   682 0000039E 48FFC7                  inc rdi
   683 000003A1 48FFC2                  inc rdx
   684 000003A4 EBF1                    jmp ..@17.countLoop
   685                                 ..@17.countLoopDone:
   686                                 
   687 000003A6 48C7C001000000          mov rax, SYS_write
   688 000003AD 48C7C701000000          mov rdi, STDOUT
   689 000003B4 488D3425[00000000]      lea rsi, [hdrSum]
   690 000003BC 0F05                    syscall
   691                                 
   692 000003BE 59                      pop rcx
   693 000003BF 5A                      pop rdx
   694 000003C0 5E                      pop rsi
   695 000003C1 5F                      pop rdi
   696 000003C2 58                      pop rax
   697                                 %line 319+1 ast07.asm
   698                                 
   699                                 %line 319+0 ast07.asm
   700                                 
   701                                 
   702                                 
   703                                 
   704                                 
   705                                 %line 320+1 ast07.asm
   706 000003C3 50                      push rax
   707                                 %line 320+0 ast07.asm
   708 000003C4 57                      push rdi
   709 000003C5 56                      push rsi
   710 000003C6 52                      push rdx
   711 000003C7 51                      push rcx
   712                                 
   713 000003C8 488D3C25[00000000]      lea rdi, [tmpString]
   714 000003D0 48C7C200000000          mov rdx, 0
   715                                 ..@19.countLoop:
   716 000003D7 803F00                  cmp byte [rdi], NULL
   717 000003DA 7406                    je ..@19.countLoopDone
   718 000003DC 48FFC7                  inc rdi
   719 000003DF 48FFC2                  inc rdx
   720 000003E2 EBF1                    jmp ..@19.countLoop
   721                                 ..@19.countLoopDone:
   722                                 
   723 000003E4 48C7C001000000          mov rax, SYS_write
   724 000003EB 48C7C701000000          mov rdi, STDOUT
   725 000003F2 488D3425[00000000]      lea rsi, [tmpString]
   726 000003FA 0F05                    syscall
   727                                 
   728 000003FC 59                      pop rcx
   729 000003FD 5A                      pop rdx
   730 000003FE 5E                      pop rsi
   731 000003FF 5F                      pop rdi
   732 00000400 58                      pop rax
   733                                 %line 321+1 ast07.asm
   734 00000401 50                      push rax
   735                                 %line 321+0 ast07.asm
   736 00000402 57                      push rdi
   737 00000403 56                      push rsi
   738 00000404 52                      push rdx
   739 00000405 51                      push rcx
   740                                 
   741 00000406 488D3C25[00000000]      lea rdi, [newLine]
   742 0000040E 48C7C200000000          mov rdx, 0
   743                                 ..@20.countLoop:
   744 00000415 803F00                  cmp byte [rdi], NULL
   745 00000418 7406                    je ..@20.countLoopDone
   746 0000041A 48FFC7                  inc rdi
   747 0000041D 48FFC2                  inc rdx
   748 00000420 EBF1                    jmp ..@20.countLoop
   749                                 ..@20.countLoopDone:
   750                                 
   751 00000422 48C7C001000000          mov rax, SYS_write
   752 00000429 48C7C701000000          mov rdi, STDOUT
   753 00000430 488D3425[00000000]      lea rsi, [newLine]
   754 00000438 0F05                    syscall
   755                                 
   756 0000043A 59                      pop rcx
   757 0000043B 5A                      pop rdx
   758 0000043C 5E                      pop rsi
   759 0000043D 5F                      pop rdi
   760 0000043E 58                      pop rax
   761                                 %line 322+1 ast07.asm
   762                                 
   763 0000043F 50                      push rax
   764                                 %line 323+0 ast07.asm
   765 00000440 57                      push rdi
   766 00000441 56                      push rsi
   767 00000442 52                      push rdx
   768 00000443 51                      push rcx
   769                                 
   770 00000444 488D3C25[00000000]      lea rdi, [hdrAve]
   771 0000044C 48C7C200000000          mov rdx, 0
   772                                 ..@21.countLoop:
   773 00000453 803F00                  cmp byte [rdi], NULL
   774 00000456 7406                    je ..@21.countLoopDone
   775 00000458 48FFC7                  inc rdi
   776 0000045B 48FFC2                  inc rdx
   777 0000045E EBF1                    jmp ..@21.countLoop
   778                                 ..@21.countLoopDone:
   779                                 
   780 00000460 48C7C001000000          mov rax, SYS_write
   781 00000467 48C7C701000000          mov rdi, STDOUT
   782 0000046E 488D3425[00000000]      lea rsi, [hdrAve]
   783 00000476 0F05                    syscall
   784                                 
   785 00000478 59                      pop rcx
   786 00000479 5A                      pop rdx
   787 0000047A 5E                      pop rsi
   788 0000047B 5F                      pop rdi
   789 0000047C 58                      pop rax
   790                                 %line 324+1 ast07.asm
   791                                 
   792                                 %line 324+0 ast07.asm
   793                                 
   794                                 
   795                                 
   796                                 
   797                                 
   798                                 %line 325+1 ast07.asm
   799 0000047D 50                      push rax
   800                                 %line 325+0 ast07.asm
   801 0000047E 57                      push rdi
   802 0000047F 56                      push rsi
   803 00000480 52                      push rdx
   804 00000481 51                      push rcx
   805                                 
   806 00000482 488D3C25[00000000]      lea rdi, [tmpString]
   807 0000048A 48C7C200000000          mov rdx, 0
   808                                 ..@23.countLoop:
   809 00000491 803F00                  cmp byte [rdi], NULL
   810 00000494 7406                    je ..@23.countLoopDone
   811 00000496 48FFC7                  inc rdi
   812 00000499 48FFC2                  inc rdx
   813 0000049C EBF1                    jmp ..@23.countLoop
   814                                 ..@23.countLoopDone:
   815                                 
   816 0000049E 48C7C001000000          mov rax, SYS_write
   817 000004A5 48C7C701000000          mov rdi, STDOUT
   818 000004AC 488D3425[00000000]      lea rsi, [tmpString]
   819 000004B4 0F05                    syscall
   820                                 
   821 000004B6 59                      pop rcx
   822 000004B7 5A                      pop rdx
   823 000004B8 5E                      pop rsi
   824 000004B9 5F                      pop rdi
   825 000004BA 58                      pop rax
   826                                 %line 326+1 ast07.asm
   827 000004BB 50                      push rax
   828                                 %line 326+0 ast07.asm
   829 000004BC 57                      push rdi
   830 000004BD 56                      push rsi
   831 000004BE 52                      push rdx
   832 000004BF 51                      push rcx
   833                                 
   834 000004C0 488D3C25[00000000]      lea rdi, [newLine]
   835 000004C8 48C7C200000000          mov rdx, 0
   836                                 ..@24.countLoop:
   837 000004CF 803F00                  cmp byte [rdi], NULL
   838 000004D2 7406                    je ..@24.countLoopDone
   839 000004D4 48FFC7                  inc rdi
   840 000004D7 48FFC2                  inc rdx
   841 000004DA EBF1                    jmp ..@24.countLoop
   842                                 ..@24.countLoopDone:
   843                                 
   844 000004DC 48C7C001000000          mov rax, SYS_write
   845 000004E3 48C7C701000000          mov rdi, STDOUT
   846 000004EA 488D3425[00000000]      lea rsi, [newLine]
   847 000004F2 0F05                    syscall
   848                                 
   849 000004F4 59                      pop rcx
   850 000004F5 5A                      pop rdx
   851 000004F6 5E                      pop rsi
   852 000004F7 5F                      pop rdi
   853 000004F8 58                      pop rax
   854                                 %line 327+1 ast07.asm
   855 000004F9 50                      push rax
   856                                 %line 327+0 ast07.asm
   857 000004FA 57                      push rdi
   858 000004FB 56                      push rsi
   859 000004FC 52                      push rdx
   860 000004FD 51                      push rcx
   861                                 
   862 000004FE 488D3C25[00000000]      lea rdi, [newLine]
   863 00000506 48C7C200000000          mov rdx, 0
   864                                 ..@25.countLoop:
   865 0000050D 803F00                  cmp byte [rdi], NULL
   866 00000510 7406                    je ..@25.countLoopDone
   867 00000512 48FFC7                  inc rdi
   868 00000515 48FFC2                  inc rdx
   869 00000518 EBF1                    jmp ..@25.countLoop
   870                                 ..@25.countLoopDone:
   871                                 
   872 0000051A 48C7C001000000          mov rax, SYS_write
   873 00000521 48C7C701000000          mov rdi, STDOUT
   874 00000528 488D3425[00000000]      lea rsi, [newLine]
   875 00000530 0F05                    syscall
   876                                 
   877 00000532 59                      pop rcx
   878 00000533 5A                      pop rdx
   879 00000534 5E                      pop rsi
   880 00000535 5F                      pop rdi
   881 00000536 58                      pop rax
   882                                 %line 328+1 ast07.asm
   883                                 
   884                                 
   885                                 
   886                                 
   887                                 last:
   888 00000537 48C7C03C000000          mov rax, SYS_exit
   889 0000053E 48C7C700000000          mov rdi, EXIT_SUCCESS
   890 00000545 0F05                    syscall
   891                                 
